target datalayout = "e-m:e-p270:32:32-p271:32:32-p272:64:64-i64:64-i128:128-f80:128-n8:16:32:64-S128"
target triple = "x86_64-pc-linux-gnu"

%struct.OSQPInfo = type { [32 x i8], i64, i64, double, double, double, double, double, i64, i64, double, double, double, double, double, double, double, double }

@.str.3 = private unnamed_addr constant [2 x i8] c"\0A\00", align 1
@.str.46 = private unnamed_addr constant [26 x i8] c"status:               %s\0A\00", align 1
@.str.47 = private unnamed_addr constant [34 x i8] c"solution polishing:   successful\0A\00", align 1
@.str.48 = private unnamed_addr constant [36 x i8] c"solution polishing:   unsuccessful\0A\00", align 1
@.str.49 = private unnamed_addr constant [34 x i8] c"solution polishing:   not needed\0A\00", align 1
@.str.50 = private unnamed_addr constant [26 x i8] c"number of iterations: %i\0A\00", align 1
@.str.51 = private unnamed_addr constant [28 x i8] c"optimal objective:    %.4f\0A\00", align 1
@.str.52 = private unnamed_addr constant [28 x i8] c"dual objective:       %.4f\0A\00", align 1
@.str.53 = private unnamed_addr constant [28 x i8] c"duality gap:          %.4e\0A\00", align 1
@.str.54 = private unnamed_addr constant [28 x i8] c"primal-dual integral: %.4e\0A\00", align 1
@.str.55 = private unnamed_addr constant [29 x i8] c"run time:             %.2es\0A\00", align 1
@.str.56 = private unnamed_addr constant [28 x i8] c"optimal rho estimate: %.2e\0A\00", align 1

; Function Attrs: nounwind uwtable
define void @print_footer(ptr noundef %0, i64 noundef %1) #0 {
  %3 = alloca ptr, align 8
  %4 = alloca i64, align 8
  store ptr %0, ptr %3, align 8, !tbaa !11
  store i64 %1, ptr %4, align 8, !tbaa !29
  %5 = call i32 (ptr, ...) @printf(ptr noundef @.str.3)
  %6 = load ptr, ptr %3, align 8, !tbaa !11
  %7 = getelementptr inbounds nuw %struct.OSQPInfo, ptr %6, i32 0, i32 0
  %8 = getelementptr inbounds [32 x i8], ptr %7, i64 0, i64 0
  %9 = call i32 (ptr, ...) @printf(ptr noundef @.str.46, ptr noundef %8)
  %10 = load i64, ptr %4, align 8, !tbaa !29
  %11 = icmp ne i64 %10, 0
  br i1 %11, label %12, label %41

12:                                               ; preds = %2
  %13 = load ptr, ptr %3, align 8, !tbaa !11
  %14 = getelementptr inbounds nuw %struct.OSQPInfo, ptr %13, i32 0, i32 1
  %15 = load i64, ptr %14, align 8, !tbaa !71
  %16 = icmp eq i64 %15, 1
  br i1 %16, label %17, label %41

17:                                               ; preds = %12
  %18 = load ptr, ptr %3, align 8, !tbaa !11
  %19 = getelementptr inbounds nuw %struct.OSQPInfo, ptr %18, i32 0, i32 2
  %20 = load i64, ptr %19, align 8, !tbaa !72
  %21 = icmp eq i64 %20, 1
  br i1 %21, label %22, label %24

22:                                               ; preds = %17
  %23 = call i32 (ptr, ...) @printf(ptr noundef @.str.47)
  br label %40

24:                                               ; preds = %17
  %25 = load ptr, ptr %3, align 8, !tbaa !11
  %26 = getelementptr inbounds nuw %struct.OSQPInfo, ptr %25, i32 0, i32 2
  %27 = load i64, ptr %26, align 8, !tbaa !72
  %28 = icmp slt i64 %27, 0
  br i1 %28, label %29, label %31

29:                                               ; preds = %24
  %30 = call i32 (ptr, ...) @printf(ptr noundef @.str.48)
  br label %39

31:                                               ; preds = %24
  %32 = load ptr, ptr %3, align 8, !tbaa !11
  %33 = getelementptr inbounds nuw %struct.OSQPInfo, ptr %32, i32 0, i32 2
  %34 = load i64, ptr %33, align 8, !tbaa !72
  %35 = icmp eq i64 %34, 2
  br i1 %35, label %36, label %38

36:                                               ; preds = %31
  %37 = call i32 (ptr, ...) @printf(ptr noundef @.str.49)
  br label %38

38:                                               ; preds = %36, %31
  br label %39

39:                                               ; preds = %38, %29
  br label %40

40:                                               ; preds = %39, %22
  br label %41

41:                                               ; preds = %40, %12, %2
  %42 = load ptr, ptr %3, align 8, !tbaa !11
  %43 = getelementptr inbounds nuw %struct.OSQPInfo, ptr %42, i32 0, i32 8
  %44 = load i64, ptr %43, align 8, !tbaa !57
  %45 = trunc i64 %44 to i32
  %46 = call i32 (ptr, ...) @printf(ptr noundef @.str.50, i32 noundef %45)
  %47 = load ptr, ptr %3, align 8, !tbaa !11
  %48 = getelementptr inbounds nuw %struct.OSQPInfo, ptr %47, i32 0, i32 1
  %49 = load i64, ptr %48, align 8, !tbaa !71
  %50 = icmp eq i64 %49, 1
  br i1 %50, label %56, label %51

51:                                               ; preds = %41
  %52 = load ptr, ptr %3, align 8, !tbaa !11
  %53 = getelementptr inbounds nuw %struct.OSQPInfo, ptr %52, i32 0, i32 1
  %54 = load i64, ptr %53, align 8, !tbaa !71
  %55 = icmp eq i64 %54, 2
  br i1 %55, label %56, label %73

56:                                               ; preds = %51, %41
  %57 = load ptr, ptr %3, align 8, !tbaa !11
  %58 = getelementptr inbounds nuw %struct.OSQPInfo, ptr %57, i32 0, i32 3
  %59 = load double, ptr %58, align 8, !tbaa !59
  %60 = call i32 (ptr, ...) @printf(ptr noundef @.str.51, double noundef %59)
  %61 = load ptr, ptr %3, align 8, !tbaa !11
  %62 = getelementptr inbounds nuw %struct.OSQPInfo, ptr %61, i32 0, i32 4
  %63 = load double, ptr %62, align 8, !tbaa !73
  %64 = call i32 (ptr, ...) @printf(ptr noundef @.str.52, double noundef %63)
  %65 = load ptr, ptr %3, align 8, !tbaa !11
  %66 = getelementptr inbounds nuw %struct.OSQPInfo, ptr %65, i32 0, i32 7
  %67 = load double, ptr %66, align 8, !tbaa !62
  %68 = call i32 (ptr, ...) @printf(ptr noundef @.str.53, double noundef %67)
  %69 = load ptr, ptr %3, align 8, !tbaa !11
  %70 = getelementptr inbounds nuw %struct.OSQPInfo, ptr %69, i32 0, i32 16
  %71 = load double, ptr %70, align 8, !tbaa !74
  %72 = call i32 (ptr, ...) @printf(ptr noundef @.str.54, double noundef %71)
  br label %73

73:                                               ; preds = %56, %51
  %74 = load ptr, ptr %3, align 8, !tbaa !11
  %75 = getelementptr inbounds nuw %struct.OSQPInfo, ptr %74, i32 0, i32 15
  %76 = load double, ptr %75, align 8, !tbaa !75
  %77 = call i32 (ptr, ...) @printf(ptr noundef @.str.55, double noundef %76)
  %78 = load ptr, ptr %3, align 8, !tbaa !11
  %79 = getelementptr inbounds nuw %struct.OSQPInfo, ptr %78, i32 0, i32 10
  %80 = load double, ptr %79, align 8, !tbaa !76
  %81 = call i32 (ptr, ...) @printf(ptr noundef @.str.56, double noundef %80)
  %82 = call i32 (ptr, ...) @printf(ptr noundef @.str.3)
  ret void
}