; Function Attrs: nofree nounwind uwtable
define void @print_footer(ptr noundef %0, i64 noundef %1) local_unnamed_addr #2 {
  %putchar = tail call i32 @putchar(i32 10)
  %3 = tail call i32 (ptr, ...) @printf(ptr noundef nonnull dereferenceable(1) @.str.46, ptr noundef %0)
  %.not = icmp eq i64 %1, 0
  br i1 %.not, label %16, label %4

4:                                                ; preds = %2
  %5 = getelementptr inbounds nuw i8, ptr %0, i64 32
  %6 = load i64, ptr %5, align 8, !tbaa !62
  %7 = icmp eq i64 %6, 1
  br i1 %7, label %8, label %16

8:                                                ; preds = %4
  %9 = getelementptr inbounds nuw i8, ptr %0, i64 40
  %10 = load i64, ptr %9, align 8, !tbaa !63
  %11 = icmp eq i64 %10, 1
  br i1 %11, label %.sink.split, label %12

12:                                               ; preds = %8
  %13 = icmp slt i64 %10, 0
  br i1 %13, label %.sink.split, label %14

14:                                               ; preds = %12
  %15 = icmp eq i64 %10, 2
  br i1 %15, label %.sink.split, label %16

.sink.split:                                      ; preds = %14, %12, %8
  %str.5.sink = phi ptr [ @str.5, %8 ], [ @str.4, %12 ], [ @str.3, %14 ]
  %puts16 = tail call i32 @puts(ptr nonnull dereferenceable(1) %str.5.sink)
  br label %16

16:                                               ; preds = %.sink.split, %14, %4, %2
  %17 = getelementptr inbounds nuw i8, ptr %0, i64 88
  %18 = load i64, ptr %17, align 8, !tbaa !49
  %19 = trunc i64 %18 to i32
  %20 = tail call i32 (ptr, ...) @printf(ptr noundef nonnull dereferenceable(1) @.str.50, i32 noundef %19)
  %21 = getelementptr inbounds nuw i8, ptr %0, i64 32
  %22 = load i64, ptr %21, align 8, !tbaa !62
  %.off = add i64 %22, -1
  %switch = icmp ult i64 %.off, 2
  br i1 %switch, label %23, label %36

23:                                               ; preds = %16
  %24 = getelementptr inbounds nuw i8, ptr %0, i64 48
  %25 = load double, ptr %24, align 8, !tbaa !51
  %26 = tail call i32 (ptr, ...) @printf(ptr noundef nonnull dereferenceable(1) @.str.51, double noundef %25)
  %27 = getelementptr inbounds nuw i8, ptr %0, i64 56
  %28 = load double, ptr %27, align 8, !tbaa !64
  %29 = tail call i32 (ptr, ...) @printf(ptr noundef nonnull dereferenceable(1) @.str.52, double noundef %28)
  %30 = getelementptr inbounds nuw i8, ptr %0, i64 80
  %31 = load double, ptr %30, align 8, !tbaa !54
  %32 = tail call i32 (ptr, ...) @printf(ptr noundef nonnull dereferenceable(1) @.str.53, double noundef %31)
  %33 = getelementptr inbounds nuw i8, ptr %0, i64 152
  %34 = load double, ptr %33, align 8, !tbaa !65
  %35 = tail call i32 (ptr, ...) @printf(ptr noundef nonnull dereferenceable(1) @.str.54, double noundef %34)
  br label %36

36:                                               ; preds = %16, %23
  %37 = getelementptr inbounds nuw i8, ptr %0, i64 144
  %38 = load double, ptr %37, align 8, !tbaa !66
  %39 = tail call i32 (ptr, ...) @printf(ptr noundef nonnull dereferenceable(1) @.str.55, double noundef %38)
  %40 = getelementptr inbounds nuw i8, ptr %0, i64 104
  %41 = load double, ptr %40, align 8, !tbaa !67
  %42 = tail call i32 (ptr, ...) @printf(ptr noundef nonnull dereferenceable(1) @.str.56, double noundef %41)
  %putchar17 = tail call i32 @putchar(i32 10)
  ret void
}